target datalayout = "e-m:e-p270:32:32-p271:32:32-p272:64:64-i64:64-i128:128-f80:128-n8:16:32:64-S128"
target triple = "x86_64-pc-linux-gnu"

%"class.std::error_code" = type { i32, ptr }
%"class.fmt::v11::file" = type { i32 }

; Function Attrs: mustprogress nounwind uwtable
define linkonce_odr hidden void @_ZNSt10error_codeC2EiRKNSt3_V214error_categoryE(ptr noundef nonnull align 8 dereferenceable(16) %0, i32 noundef %1, ptr noundef nonnull align 8 dereferenceable(8) %2) unnamed_addr #0 comdat align 2 {
  %4 = alloca ptr, align 8
  %5 = alloca i32, align 4
  %6 = alloca ptr, align 8
  store ptr %0, ptr %4, align 8, !tbaa !71
  store i32 %1, ptr %5, align 4, !tbaa !12
  store ptr %2, ptr %6, align 8, !tbaa !75
  %7 = load ptr, ptr %4, align 8
  %8 = getelementptr inbounds nuw %"class.std::error_code", ptr %7, i32 0, i32 0
  %9 = load i32, ptr %5, align 4, !tbaa !12
  store i32 %9, ptr %8, align 8, !tbaa !77
  %10 = getelementptr inbounds nuw %"class.std::error_code", ptr %7, i32 0, i32 1
  %11 = load ptr, ptr %6, align 8, !tbaa !75
  store ptr %11, ptr %10, align 8, !tbaa !79
  ret void
}

; Function Attrs: mustprogress nounwind uwtable
define hidden void @_ZN3fmt3v114file4dup2EiRSt10error_code(ptr noundef nonnull align 4 dereferenceable(4) %0, i32 noundef %1, ptr noundef nonnull align 8 dereferenceable(16) %2) #0 align 2 {
  %4 = alloca ptr, align 8
  %5 = alloca i32, align 4
  %6 = alloca ptr, align 8
  %7 = alloca i32, align 4
  %8 = alloca %"class.std::error_code", align 8
  store ptr %0, ptr %4, align 8, !tbaa !38
  store i32 %1, ptr %5, align 4, !tbaa !12
  store ptr %2, ptr %6, align 8, !tbaa !71
  %9 = load ptr, ptr %4, align 8
  call void @llvm.lifetime.start.p0(i64 4, ptr %7) #27
  store i32 0, ptr %7, align 4, !tbaa !12
  br label %10

10:                                               ; preds = %22, %3
  %11 = getelementptr inbounds nuw %"class.fmt::v11::file", ptr %9, i32 0, i32 0
  %12 = load i32, ptr %11, align 4, !tbaa !40
  %13 = load i32, ptr %5, align 4, !tbaa !12
  %14 = call i32 @dup2(i32 noundef %12, i32 noundef %13) #27
  store i32 %14, ptr %7, align 4, !tbaa !12
  br label %15

15:                                               ; preds = %10
  %16 = load i32, ptr %7, align 4, !tbaa !12
  %17 = icmp eq i32 %16, -1
  br i1 %17, label %18, label %22

18:                                               ; preds = %15
  %19 = call ptr @__errno_location() #26
  %20 = load i32, ptr %19, align 4, !tbaa !12
  %21 = icmp eq i32 %20, 4
  br label %22

22:                                               ; preds = %18, %15
  %23 = phi i1 [ false, %15 ], [ %21, %18 ]
  br i1 %23, label %10, label %24, !llvm.loop !73

24:                                               ; preds = %22
  %25 = load i32, ptr %7, align 4, !tbaa !12
  %26 = icmp eq i32 %25, -1
  br i1 %26, label %27, label %32

27:                                               ; preds = %24
  call void @llvm.lifetime.start.p0(i64 16, ptr %8) #27
  %28 = call ptr @__errno_location() #26
  %29 = load i32, ptr %28, align 4, !tbaa !12
  %30 = call noundef nonnull align 8 dereferenceable(8) ptr @_ZNSt3_V216generic_categoryEv() #26
  call void @_ZNSt10error_codeC2EiRKNSt3_V214error_categoryE(ptr noundef nonnull align 8 dereferenceable(16) %8, i32 noundef %29, ptr noundef nonnull align 8 dereferenceable(8) %30) #27
  %31 = load ptr, ptr %6, align 8, !tbaa !71
  call void @llvm.memcpy.p0.p0.i64(ptr align 8 %31, ptr align 8 %8, i64 16, i1 false), !tbaa.struct !74
  call void @llvm.lifetime.end.p0(i64 16, ptr %8) #27
  br label %32

32:                                               ; preds = %27, %24
  call void @llvm.lifetime.end.p0(i64 4, ptr %7) #27
  ret void
}